; Function Attrs: nounwind uwtable
define noalias nonnull ptr @l_instMonadExceptOfMonadExceptOf___rarg(ptr noundef %0) #0 {
  %2 = ptrtoint ptr %0 to i64
  %3 = and i64 %2, 1
  %.not = icmp eq i64 %3, 0
  br i1 %.not, label %4, label %lean_inc.exit

4:                                                ; preds = %1
  %.val.i = load i32, ptr %0, align 4, !tbaa !4
  %5 = icmp sgt i32 %.val.i, 0
  br i1 %5, label %6, label %8, !prof !9

6:                                                ; preds = %4
  %7 = add nuw i32 %.val.i, 1
  store i32 %7, ptr %0, align 4, !tbaa !4
  br label %lean_inc.exit

8:                                                ; preds = %4
  %.not.i = icmp eq i32 %.val.i, 0
  br i1 %.not.i, label %lean_inc.exit, label %9

9:                                                ; preds = %8
  tail call void @lean_inc_ref_cold(ptr noundef nonnull %0) #11
  br label %lean_inc.exit

lean_inc.exit:                                    ; preds = %9, %8, %6, %1
  tail call void @lean_inc_heartbeat() #11
  %10 = tail call noalias ptr @mi_malloc_small(i64 noundef 32) #11
  %11 = icmp eq ptr %10, null
  br i1 %11, label %12, label %lean_alloc_closure.exit

12:                                               ; preds = %lean_inc.exit
  tail call void @lean_internal_panic_out_of_memory() #12
  unreachable

lean_alloc_closure.exit:                          ; preds = %lean_inc.exit
  %13 = getelementptr inbounds nuw i8, ptr %10, i64 4
  store i32 1, ptr %10, align 4, !tbaa !4
  store i32 -184549344, ptr %13, align 4
  %14 = getelementptr inbounds nuw i8, ptr %10, i64 8
  store ptr @l_throwThe___rarg, ptr %14, align 8, !tbaa !10
  %15 = getelementptr inbounds nuw i8, ptr %10, i64 16
  store i16 3, ptr %15, align 8, !tbaa !12
  %16 = getelementptr inbounds nuw i8, ptr %10, i64 18
  store i16 1, ptr %16, align 2, !tbaa !12
  %17 = getelementptr inbounds nuw i8, ptr %10, i64 24
  store ptr %0, ptr %17, align 8, !tbaa !10
  tail call void @lean_inc_heartbeat() #11
  %18 = tail call noalias ptr @mi_malloc_small(i64 noundef 32) #11
  %19 = icmp eq ptr %18, null
  br i1 %19, label %20, label %lean_alloc_closure.exit10

20:                                               ; preds = %lean_alloc_closure.exit
  tail call void @lean_internal_panic_out_of_memory() #12
  unreachable

lean_alloc_closure.exit10:                        ; preds = %lean_alloc_closure.exit
  %21 = getelementptr inbounds nuw i8, ptr %18, i64 4
  store i32 1, ptr %18, align 4, !tbaa !4
  store i32 -184549344, ptr %21, align 4
  %22 = getelementptr inbounds nuw i8, ptr %18, i64 8
  store ptr @l_tryCatchThe___rarg, ptr %22, align 8, !tbaa !10
  %23 = getelementptr inbounds nuw i8, ptr %18, i64 16
  store i16 4, ptr %23, align 8, !tbaa !12
  %24 = getelementptr inbounds nuw i8, ptr %18, i64 18
  store i16 1, ptr %24, align 2, !tbaa !12
  %25 = getelementptr inbounds nuw i8, ptr %18, i64 24
  store ptr %0, ptr %25, align 8, !tbaa !10
  tail call void @lean_inc_heartbeat() #11
  %26 = tail call noalias ptr @mi_malloc_small(i64 noundef 24) #11
  %27 = icmp eq ptr %26, null
  br i1 %27, label %28, label %lean_alloc_ctor.exit

28:                                               ; preds = %lean_alloc_closure.exit10
  tail call void @lean_internal_panic_out_of_memory() #12
  unreachable

lean_alloc_ctor.exit:                             ; preds = %lean_alloc_closure.exit10
  %29 = getelementptr inbounds nuw i8, ptr %26, i64 4
  store i32 1, ptr %26, align 4, !tbaa !4
  store i32 131096, ptr %29, align 4
  %30 = getelementptr inbounds nuw i8, ptr %26, i64 8
  store ptr %10, ptr %30, align 8, !tbaa !10
  %31 = getelementptr inbounds nuw i8, ptr %26, i64 16
  store ptr %18, ptr %31, align 8, !tbaa !10
  ret ptr %26
}